target datalayout = "e-m:e-p270:32:32-p271:32:32-p272:64:64-i64:64-i128:128-f80:128-n8:16:32:64-S128"
target triple = "x86_64-pc-linux-gnu"

%struct._zend_op = type { ptr, %union._znode_op, %union._znode_op, %union._znode_op, i32, i32, i8, i8, i8, i8 }
%union._znode_op = type { i32 }
%struct._zend_ssa_op = type { i32, i32, i32, i32, i32, i32, i32, i32, i32 }
%struct._zend_ssa = type { %struct._zend_cfg, i32, i32, ptr, ptr, ptr, ptr }
%struct._zend_cfg = type { i32, i32, ptr, ptr, ptr, i32 }

; Function Attrs: nounwind uwtable
define hidden void @zend_ssa_remove_instr(ptr noundef %0, ptr noundef %1, ptr noundef %2) #0 {
  %4 = alloca ptr, align 8
  %5 = alloca ptr, align 8
  %6 = alloca ptr, align 8
  store ptr %0, ptr %4, align 8, !tbaa !48
  store ptr %1, ptr %5, align 8, !tbaa !9
  store ptr %2, ptr %6, align 8, !tbaa !13
  %7 = load ptr, ptr %6, align 8, !tbaa !13
  %8 = getelementptr inbounds nuw %struct._zend_ssa_op, ptr %7, i32 0, i32 2
  %9 = load i32, ptr %8, align 4, !tbaa !26
  %10 = icmp sge i32 %9, 0
  br i1 %10, label %11, label %29

11:                                               ; preds = %3
  %12 = load ptr, ptr %4, align 8, !tbaa !48
  %13 = load ptr, ptr %6, align 8, !tbaa !13
  %14 = load ptr, ptr %4, align 8, !tbaa !48
  %15 = getelementptr inbounds nuw %struct._zend_ssa, ptr %14, i32 0, i32 4
  %16 = load ptr, ptr %15, align 8, !tbaa !97
  %17 = ptrtoint ptr %13 to i64
  %18 = ptrtoint ptr %16 to i64
  %19 = sub i64 %17, %18
  %20 = sdiv exact i64 %19, 36
  %21 = trunc i64 %20 to i32
  %22 = load ptr, ptr %6, align 8, !tbaa !13
  %23 = getelementptr inbounds nuw %struct._zend_ssa_op, ptr %22, i32 0, i32 2
  %24 = load i32, ptr %23, align 4, !tbaa !26
  call void @zend_ssa_unlink_use_chain(ptr noundef %12, i32 noundef %21, i32 noundef %24)
  %25 = load ptr, ptr %6, align 8, !tbaa !13
  %26 = getelementptr inbounds nuw %struct._zend_ssa_op, ptr %25, i32 0, i32 2
  store i32 -1, ptr %26, align 4, !tbaa !26
  %27 = load ptr, ptr %6, align 8, !tbaa !13
  %28 = getelementptr inbounds nuw %struct._zend_ssa_op, ptr %27, i32 0, i32 8
  store i32 -1, ptr %28, align 4, !tbaa !125
  br label %29

29:                                               ; preds = %11, %3
  %30 = load ptr, ptr %6, align 8, !tbaa !13
  %31 = getelementptr inbounds nuw %struct._zend_ssa_op, ptr %30, i32 0, i32 0
  %32 = load i32, ptr %31, align 4, !tbaa !20
  %33 = icmp sge i32 %32, 0
  br i1 %33, label %34, label %67

34:                                               ; preds = %29
  %35 = load ptr, ptr %6, align 8, !tbaa !13
  %36 = getelementptr inbounds nuw %struct._zend_ssa_op, ptr %35, i32 0, i32 0
  %37 = load i32, ptr %36, align 4, !tbaa !20
  %38 = load ptr, ptr %6, align 8, !tbaa !13
  %39 = getelementptr inbounds nuw %struct._zend_ssa_op, ptr %38, i32 0, i32 1
  %40 = load i32, ptr %39, align 4, !tbaa !23
  %41 = icmp ne i32 %37, %40
  br i1 %41, label %42, label %56

42:                                               ; preds = %34
  %43 = load ptr, ptr %4, align 8, !tbaa !48
  %44 = load ptr, ptr %6, align 8, !tbaa !13
  %45 = load ptr, ptr %4, align 8, !tbaa !48
  %46 = getelementptr inbounds nuw %struct._zend_ssa, ptr %45, i32 0, i32 4
  %47 = load ptr, ptr %46, align 8, !tbaa !97
  %48 = ptrtoint ptr %44 to i64
  %49 = ptrtoint ptr %47 to i64
  %50 = sub i64 %48, %49
  %51 = sdiv exact i64 %50, 36
  %52 = trunc i64 %51 to i32
  %53 = load ptr, ptr %6, align 8, !tbaa !13
  %54 = getelementptr inbounds nuw %struct._zend_ssa_op, ptr %53, i32 0, i32 0
  %55 = load i32, ptr %54, align 4, !tbaa !20
  call void @zend_ssa_unlink_use_chain(ptr noundef %43, i32 noundef %52, i32 noundef %55)
  br label %62

56:                                               ; preds = %34
  %57 = load ptr, ptr %6, align 8, !tbaa !13
  %58 = getelementptr inbounds nuw %struct._zend_ssa_op, ptr %57, i32 0, i32 6
  %59 = load i32, ptr %58, align 4, !tbaa !123
  %60 = load ptr, ptr %6, align 8, !tbaa !13
  %61 = getelementptr inbounds nuw %struct._zend_ssa_op, ptr %60, i32 0, i32 7
  store i32 %59, ptr %61, align 4, !tbaa !124
  br label %62

62:                                               ; preds = %56, %42
  %63 = load ptr, ptr %6, align 8, !tbaa !13
  %64 = getelementptr inbounds nuw %struct._zend_ssa_op, ptr %63, i32 0, i32 0
  store i32 -1, ptr %64, align 4, !tbaa !20
  %65 = load ptr, ptr %6, align 8, !tbaa !13
  %66 = getelementptr inbounds nuw %struct._zend_ssa_op, ptr %65, i32 0, i32 6
  store i32 -1, ptr %66, align 4, !tbaa !123
  br label %67

67:                                               ; preds = %62, %29
  %68 = load ptr, ptr %6, align 8, !tbaa !13
  %69 = getelementptr inbounds nuw %struct._zend_ssa_op, ptr %68, i32 0, i32 1
  %70 = load i32, ptr %69, align 4, !tbaa !23
  %71 = icmp sge i32 %70, 0
  br i1 %71, label %72, label %90

72:                                               ; preds = %67
  %73 = load ptr, ptr %4, align 8, !tbaa !48
  %74 = load ptr, ptr %6, align 8, !tbaa !13
  %75 = load ptr, ptr %4, align 8, !tbaa !48
  %76 = getelementptr inbounds nuw %struct._zend_ssa, ptr %75, i32 0, i32 4
  %77 = load ptr, ptr %76, align 8, !tbaa !97
  %78 = ptrtoint ptr %74 to i64
  %79 = ptrtoint ptr %77 to i64
  %80 = sub i64 %78, %79
  %81 = sdiv exact i64 %80, 36
  %82 = trunc i64 %81 to i32
  %83 = load ptr, ptr %6, align 8, !tbaa !13
  %84 = getelementptr inbounds nuw %struct._zend_ssa_op, ptr %83, i32 0, i32 1
  %85 = load i32, ptr %84, align 4, !tbaa !23
  call void @zend_ssa_unlink_use_chain(ptr noundef %73, i32 noundef %82, i32 noundef %85)
  %86 = load ptr, ptr %6, align 8, !tbaa !13
  %87 = getelementptr inbounds nuw %struct._zend_ssa_op, ptr %86, i32 0, i32 1
  store i32 -1, ptr %87, align 4, !tbaa !23
  %88 = load ptr, ptr %6, align 8, !tbaa !13
  %89 = getelementptr inbounds nuw %struct._zend_ssa_op, ptr %88, i32 0, i32 7
  store i32 -1, ptr %89, align 4, !tbaa !124
  br label %90

90:                                               ; preds = %72, %67
  %91 = load ptr, ptr %6, align 8, !tbaa !13
  %92 = getelementptr inbounds nuw %struct._zend_ssa_op, ptr %91, i32 0, i32 5
  %93 = load i32, ptr %92, align 4, !tbaa !43
  %94 = icmp eq i32 %93, -1
  call void @llvm.assume(i1 %94)
  %95 = load ptr, ptr %6, align 8, !tbaa !13
  %96 = getelementptr inbounds nuw %struct._zend_ssa_op, ptr %95, i32 0, i32 3
  %97 = load i32, ptr %96, align 4, !tbaa !28
  %98 = icmp eq i32 %97, -1
  call void @llvm.assume(i1 %98)
  %99 = load ptr, ptr %6, align 8, !tbaa !13
  %100 = getelementptr inbounds nuw %struct._zend_ssa_op, ptr %99, i32 0, i32 4
  %101 = load i32, ptr %100, align 4, !tbaa !27
  %102 = icmp eq i32 %101, -1
  call void @llvm.assume(i1 %102)
  br label %103

103:                                              ; preds = %90
  %104 = load ptr, ptr %5, align 8, !tbaa !9
  %105 = getelementptr inbounds nuw %struct._zend_op, ptr %104, i32 0, i32 6
  store i8 0, ptr %105, align 4, !tbaa !25
  br label %106

106:                                              ; preds = %103
  %107 = load ptr, ptr %5, align 8, !tbaa !9
  %108 = getelementptr inbounds nuw %struct._zend_op, ptr %107, i32 0, i32 7
  store i8 0, ptr %108, align 1, !tbaa !17
  %109 = load ptr, ptr %5, align 8, !tbaa !9
  %110 = getelementptr inbounds nuw %struct._zend_op, ptr %109, i32 0, i32 1
  store i32 -1, ptr %110, align 8, !tbaa !19
  br label %111

111:                                              ; preds = %106
  br label %112

112:                                              ; preds = %111
  %113 = load ptr, ptr %5, align 8, !tbaa !9
  %114 = getelementptr inbounds nuw %struct._zend_op, ptr %113, i32 0, i32 8
  store i8 0, ptr %114, align 2, !tbaa !22
  %115 = load ptr, ptr %5, align 8, !tbaa !9
  %116 = getelementptr inbounds nuw %struct._zend_op, ptr %115, i32 0, i32 2
  store i32 -1, ptr %116, align 4, !tbaa !19
  br label %117

117:                                              ; preds = %112
  br label %118

118:                                              ; preds = %117
  %119 = load ptr, ptr %5, align 8, !tbaa !9
  %120 = getelementptr inbounds nuw %struct._zend_op, ptr %119, i32 0, i32 9
  store i8 0, ptr %120, align 1, !tbaa !24
  %121 = load ptr, ptr %5, align 8, !tbaa !9
  %122 = getelementptr inbounds nuw %struct._zend_op, ptr %121, i32 0, i32 3
  store i32 -1, ptr %122, align 8, !tbaa !19
  br label %123

123:                                              ; preds = %118
  br label %124

124:                                              ; preds = %123
  ret void
}