; Function Attrs: nofree norecurse nosync nounwind memory(readwrite, inaccessiblemem: write) uwtable
define hidden void @zend_ssa_remove_instr(ptr noundef readonly captures(none) %0, ptr noundef writeonly captures(none) initializes((8, 20), (28, 32)) %1, ptr noundef %2) local_unnamed_addr #7 {
  %4 = getelementptr inbounds nuw i8, ptr %2, i64 8
  %5 = load i32, ptr %4, align 4, !tbaa !18
  %6 = icmp sgt i32 %5, -1
  br i1 %6, label %7, label %16

7:                                                ; preds = %3
  %8 = getelementptr inbounds nuw i8, ptr %0, i64 56
  %9 = load ptr, ptr %8, align 8, !tbaa !106
  %10 = ptrtoint ptr %2 to i64
  %11 = ptrtoint ptr %9 to i64
  %12 = sub i64 %10, %11
  %13 = sdiv exact i64 %12, 36
  %14 = trunc i64 %13 to i32
  tail call void @zend_ssa_unlink_use_chain(ptr noundef %0, i32 noundef %14, i32 noundef %5)
  store i32 -1, ptr %4, align 4, !tbaa !18
  %15 = getelementptr inbounds nuw i8, ptr %2, i64 32
  store i32 -1, ptr %15, align 4, !tbaa !123
  br label %16

16:                                               ; preds = %7, %3
  %17 = load i32, ptr %2, align 4, !tbaa !12
  %18 = icmp sgt i32 %17, -1
  br i1 %18, label %19, label %36

19:                                               ; preds = %16
  %20 = getelementptr inbounds nuw i8, ptr %2, i64 4
  %21 = load i32, ptr %20, align 4, !tbaa !15
  %.not = icmp eq i32 %17, %21
  br i1 %.not, label %30, label %22

22:                                               ; preds = %19
  %23 = getelementptr inbounds nuw i8, ptr %0, i64 56
  %24 = load ptr, ptr %23, align 8, !tbaa !106
  %25 = ptrtoint ptr %2 to i64
  %26 = ptrtoint ptr %24 to i64
  %27 = sub i64 %25, %26
  %28 = sdiv exact i64 %27, 36
  %29 = trunc i64 %28 to i32
  tail call void @zend_ssa_unlink_use_chain(ptr noundef %0, i32 noundef %29, i32 noundef %17)
  br label %34

30:                                               ; preds = %19
  %31 = getelementptr inbounds nuw i8, ptr %2, i64 24
  %32 = load i32, ptr %31, align 4, !tbaa !121
  %33 = getelementptr inbounds nuw i8, ptr %2, i64 28
  store i32 %32, ptr %33, align 4, !tbaa !122
  br label %34

34:                                               ; preds = %30, %22
  store i32 -1, ptr %2, align 4, !tbaa !12
  %35 = getelementptr inbounds nuw i8, ptr %2, i64 24
  store i32 -1, ptr %35, align 4, !tbaa !121
  br label %36

36:                                               ; preds = %34, %16
  %37 = getelementptr inbounds nuw i8, ptr %2, i64 4
  %38 = load i32, ptr %37, align 4, !tbaa !15
  %39 = icmp sgt i32 %38, -1
  br i1 %39, label %40, label %49

40:                                               ; preds = %36
  %41 = getelementptr inbounds nuw i8, ptr %0, i64 56
  %42 = load ptr, ptr %41, align 8, !tbaa !106
  %43 = ptrtoint ptr %2 to i64
  %44 = ptrtoint ptr %42 to i64
  %45 = sub i64 %43, %44
  %46 = sdiv exact i64 %45, 36
  %47 = trunc i64 %46 to i32
  tail call void @zend_ssa_unlink_use_chain(ptr noundef %0, i32 noundef %47, i32 noundef %38)
  store i32 -1, ptr %37, align 4, !tbaa !15
  %48 = getelementptr inbounds nuw i8, ptr %2, i64 28
  store i32 -1, ptr %48, align 4, !tbaa !122
  br label %49

49:                                               ; preds = %40, %36
  %50 = getelementptr inbounds nuw i8, ptr %2, i64 20
  %51 = load i32, ptr %50, align 4, !tbaa !37
  %52 = icmp eq i32 %51, -1
  tail call void @llvm.assume(i1 %52)
  %53 = getelementptr inbounds nuw i8, ptr %2, i64 12
  %54 = load i32, ptr %53, align 4, !tbaa !20
  %55 = icmp eq i32 %54, -1
  tail call void @llvm.assume(i1 %55)
  %56 = getelementptr inbounds nuw i8, ptr %2, i64 16
  %57 = load i32, ptr %56, align 4, !tbaa !19
  %58 = icmp eq i32 %57, -1
  tail call void @llvm.assume(i1 %58)
  %59 = getelementptr inbounds nuw i8, ptr %1, i64 28
  store i8 0, ptr %59, align 4, !tbaa !17
  %60 = getelementptr inbounds nuw i8, ptr %1, i64 29
  store i8 0, ptr %60, align 1, !tbaa !4
  %61 = getelementptr inbounds nuw i8, ptr %1, i64 8
  store i32 -1, ptr %61, align 8, !tbaa !10
  %62 = getelementptr inbounds nuw i8, ptr %1, i64 30
  store i8 0, ptr %62, align 2, !tbaa !14
  %63 = getelementptr inbounds nuw i8, ptr %1, i64 12
  store i32 -1, ptr %63, align 4, !tbaa !10
  %64 = getelementptr inbounds nuw i8, ptr %1, i64 31
  store i8 0, ptr %64, align 1, !tbaa !16
  %65 = getelementptr inbounds nuw i8, ptr %1, i64 16
  store i32 -1, ptr %65, align 8, !tbaa !10
  ret void
}